; Function Attrs: nounwind uwtable
define ptr @l_Lake_shortOptionWithEq___rarg___lambda__1(ptr noundef %0, ptr noundef %1, ptr noundef readnone captures(none) %2) local_unnamed_addr #0 {
  %4 = tail call i32 @lean_string_utf8_get(ptr noundef %0, ptr noundef nonnull inttoptr (i64 3 to ptr)) #3
  %5 = zext i32 %4 to i64
  %6 = shl nuw nsw i64 %5, 1
  %7 = or disjoint i64 %6, 1
  %8 = inttoptr i64 %7 to ptr
  %9 = tail call ptr @lean_apply_1(ptr noundef %1, ptr noundef nonnull %8) #3
  ret ptr %9
}